{
   <insert_a_suppression_name_here>
   Memcheck:Cond
   fun:_ZN4dyld5_mainEPK12macho_headermiPPKcS5_S5_Pm
   fun:_ZN13dyldbootstrap5startEPK12macho_headeriPPKclS2_Pm
   fun:_dyld_start
}

{
   <insert_a_suppression_name_here>
   Memcheck:Cond
   fun:_ZN4dyldL25checkEnvironmentVariablesEPPKc
   fun:_ZN4dyld5_mainEPK12macho_headermiPPKcS5_S5_Pm
   fun:_ZN13dyldbootstrap5startEPK12macho_headeriPPKclS2_Pm
   fun:_dyld_start
}

{
   <insert_a_suppression_name_here>
   Memcheck:Cond
   fun:_ZN4dyld30processDyldEnvironmentVariableEPKcS1_S1_
   fun:_ZN4dyldL25checkEnvironmentVariablesEPPKc
   fun:_ZN4dyld5_mainEPK12macho_headermiPPKcS5_S5_Pm
   fun:_ZN13dyldbootstrap5startEPK12macho_headeriPPKclS2_Pm
   fun:_dyld_start
}

{
   <insert_a_suppression_name_here>
   Memcheck:Cond
   fun:_ZN4dyld5_mainEPK12macho_headermiPPKcS5_S5_Pm
   fun:_ZN13dyldbootstrap5startEPK12macho_headeriPPKclS2_Pm
   fun:_dyld_start
}

{
   <insert_a_suppression_name_here>
   Memcheck:Cond
   fun:_ZN4dyldL10loadPhase3EPKcS1_RKNS_11LoadContextERjPNSt3__16vectorIS1_NS6_9allocatorIS1_EEEE
   fun:_ZN4dyldL10loadPhase1EPKcS1_RKNS_11LoadContextERjPNSt3__16vectorIS1_NS6_9allocatorIS1_EEEE
   fun:_ZN4dyldL10loadPhase0EPKcS1_RKNS_11LoadContextERjPNSt3__16vectorIS1_NS6_9allocatorIS1_EEEE
   fun:_ZN4dyld4loadEPKcRKNS_11LoadContextERj
   fun:_ZN4dyld5_mainEPK12macho_headermiPPKcS5_S5_Pm
   fun:_ZN13dyldbootstrap5startEPK12macho_headeriPPKclS2_Pm
   fun:_dyld_start
}

{
   <insert_a_suppression_name_here>
   Memcheck:Cond
   fun:_ZN4dyldL10loadPhase3EPKcS1_RKNS_11LoadContextERjPNSt3__16vectorIS1_NS6_9allocatorIS1_EEEE
   fun:_ZN4dyldL10loadPhase1EPKcS1_RKNS_11LoadContextERjPNSt3__16vectorIS1_NS6_9allocatorIS1_EEEE
   fun:_ZN4dyldL10loadPhase0EPKcS1_RKNS_11LoadContextERjPNSt3__16vectorIS1_NS6_9allocatorIS1_EEEE
   fun:_ZN4dyld4loadEPKcRKNS_11LoadContextERj
   fun:_ZN4dyld5_mainEPK12macho_headermiPPKcS5_S5_Pm
   fun:_ZN13dyldbootstrap5startEPK12macho_headeriPPKclS2_Pm
   fun:_dyld_start
}

{
   <insert_a_suppression_name_here>
   Memcheck:Cond
   fun:ccaes_vng_ctr_crypt
   fun:bcc_update
   fun:df_bcc_update
   fun:df
   fun:nistctr_init
   fun:init
   fun:arc4_init
   fun:arc4random_buf
   fun:_read_images
   fun:appendHeader
   fun:_class_remap
   fun:_ZN4dyldL18notifyBatchPartialE17dyld_image_statesbPFPKcS0_jPK15dyld_image_infoEbb
}

{
   <insert_a_suppression_name_here>
   Memcheck:Cond
   fun:ccaes_vng_ctr_crypt
   fun:bcc_update
   fun:df_bcc_update
   fun:df
   fun:nistctr_init
   fun:init
   fun:arc4_init
   fun:arc4random_buf
   fun:_read_images
   fun:appendHeader
   fun:_class_remap
   fun:_ZN4dyldL18notifyBatchPartialE17dyld_image_statesbPFPKcS0_jPK15dyld_image_infoEbb
}

{
   <insert_a_suppression_name_here>
   Memcheck:Cond
   fun:ccaes_vng_ctr_crypt
   fun:bcc_update
   fun:df
   fun:nistctr_init
   fun:init
   fun:arc4_init
   fun:arc4random_buf
   fun:_read_images
   fun:appendHeader
   fun:_class_remap
   fun:_ZN4dyldL18notifyBatchPartialE17dyld_image_statesbPFPKcS0_jPK15dyld_image_infoEbb
   fun:_ZN4dyld21registerObjCNotifiersEPFvjPKPKcPKPK11mach_headerEPFvS1_S6_ESC_
}

{
   <insert_a_suppression_name_here>
   Memcheck:Cond
   fun:ccaes_vng_ctr_crypt
   fun:df
   fun:nistctr_init
   fun:init
   fun:arc4_init
   fun:arc4random_buf
   fun:_read_images
   fun:appendHeader
   fun:_class_remap
   fun:_ZN4dyldL18notifyBatchPartialE17dyld_image_statesbPFPKcS0_jPK15dyld_image_infoEbb
   fun:_ZN4dyld21registerObjCNotifiersEPFvjPKPKcPKPK11mach_headerEPFvS1_S6_ESC_
   fun:_dyld_objc_notify_register
}

{
   <insert_a_suppression_name_here>
   Memcheck:Cond
   fun:drbg_update
   fun:nistctr_init
   fun:init
   fun:arc4_init
   fun:arc4random_buf
   fun:_read_images
   fun:appendHeader
   fun:_class_remap
   fun:_ZN4dyldL18notifyBatchPartialE17dyld_image_statesbPFPKcS0_jPK15dyld_image_infoEbb
   fun:_ZN4dyld21registerObjCNotifiersEPFvjPKPKcPKPK11mach_headerEPFvS1_S6_ESC_
   fun:_dyld_objc_notify_register
   fun:map_images_nolock
}

{
   <insert_a_suppression_name_here>
   Memcheck:Cond
   fun:ccaes_vng_ctr_crypt
   fun:generate
   fun:arc4random_buf
   fun:_read_images
   fun:appendHeader
   fun:_class_remap
   fun:_ZN4dyldL18notifyBatchPartialE17dyld_image_statesbPFPKcS0_jPK15dyld_image_infoEbb
   fun:_ZN4dyld21registerObjCNotifiersEPFvjPKPKcPKPK11mach_headerEPFvS1_S6_ESC_
   fun:_dyld_objc_notify_register
   fun:map_images_nolock
   fun:_os_object_init
   fun:libdispatch_init
}

{
   <insert_a_suppression_name_here>
   Memcheck:Cond
   fun:ccaes_vng_ctr_crypt
   fun:drbg_update
   fun:generate
   fun:arc4random_buf
   fun:_read_images
   fun:appendHeader
   fun:_class_remap
   fun:_ZN4dyldL18notifyBatchPartialE17dyld_image_statesbPFPKcS0_jPK15dyld_image_infoEbb
   fun:_ZN4dyld21registerObjCNotifiersEPFvjPKPKcPKPK11mach_headerEPFvS1_S6_ESC_
   fun:_dyld_objc_notify_register
   fun:map_images_nolock
   fun:_os_object_init
}

{
   <insert_a_suppression_name_here>
   Memcheck:Cond
   fun:drbg_update
   fun:generate
   fun:arc4random_buf
   fun:_read_images
   fun:appendHeader
   fun:_class_remap
   fun:_ZN4dyldL18notifyBatchPartialE17dyld_image_statesbPFPKcS0_jPK15dyld_image_infoEbb
   fun:_ZN4dyld21registerObjCNotifiersEPFvjPKPKcPKPK11mach_headerEPFvS1_S6_ESC_
   fun:_dyld_objc_notify_register
   fun:map_images_nolock
   fun:_os_object_init
   fun:libdispatch_init
}

{
   <insert_a_suppression_name_here>
   Memcheck:Cond
   fun:drbg_update
   fun:generate
   fun:arc4random_buf
   fun:_read_images
   fun:appendHeader
   fun:_class_remap
   fun:_ZN4dyldL18notifyBatchPartialE17dyld_image_statesbPFPKcS0_jPK15dyld_image_infoEbb
   fun:_ZN4dyld21registerObjCNotifiersEPFvjPKPKcPKPK11mach_headerEPFvS1_S6_ESC_
   fun:_dyld_objc_notify_register
   fun:map_images_nolock
   fun:_os_object_init
   fun:libdispatch_init
}

{
   <insert_a_suppression_name_here>
   Memcheck:Cond
   fun:_ZL33objc_initializeClassPair_internalP10objc_classPKcS0_S0_
   fun:_libxpc_initializer
   fun:libSystem_initializer
   fun:_ZN16ImageLoaderMachO18doModInitFunctionsERKN11ImageLoader11LinkContextE
   fun:_ZN16ImageLoaderMachO16doInitializationERKN11ImageLoader11LinkContextE
   fun:_ZN11ImageLoader23recursiveInitializationERKNS_11LinkContextEjPKcRNS_21InitializerTimingListERNS_15UninitedUpwardsE
   fun:_ZN11ImageLoader23recursiveInitializationERKNS_11LinkContextEjPKcRNS_21InitializerTimingListERNS_15UninitedUpwardsE
   fun:_ZN11ImageLoader19processInitializersERKNS_11LinkContextEjRNS_21InitializerTimingListERNS_15UninitedUpwardsE
   fun:_ZN11ImageLoader15runInitializersERKNS_11LinkContextERNS_21InitializerTimingListE
   fun:_ZN4dyld24initializeMainExecutableEv
   fun:_ZN4dyld5_mainEPK12macho_headermiPPKcS5_S5_Pm
   fun:_ZN13dyldbootstrap5startEPK12macho_headeriPPKclS2_Pm
}

{
   <insert_a_suppression_name_here>
   Memcheck:Value8
   fun:_ZL33objc_initializeClassPair_internalP10objc_classPKcS0_S0_
   fun:_libxpc_initializer
   fun:libSystem_initializer
   fun:_ZN16ImageLoaderMachO18doModInitFunctionsERKN11ImageLoader11LinkContextE
   fun:_ZN16ImageLoaderMachO16doInitializationERKN11ImageLoader11LinkContextE
   fun:_ZN11ImageLoader23recursiveInitializationERKNS_11LinkContextEjPKcRNS_21InitializerTimingListERNS_15UninitedUpwardsE
   fun:_ZN11ImageLoader23recursiveInitializationERKNS_11LinkContextEjPKcRNS_21InitializerTimingListERNS_15UninitedUpwardsE
   fun:_ZN11ImageLoader19processInitializersERKNS_11LinkContextEjRNS_21InitializerTimingListERNS_15UninitedUpwardsE
   fun:_ZN11ImageLoader15runInitializersERKNS_11LinkContextERNS_21InitializerTimingListE
   fun:_ZN4dyld24initializeMainExecutableEv
   fun:_ZN4dyld5_mainEPK12macho_headermiPPKcS5_S5_Pm
   fun:_ZN13dyldbootstrap5startEPK12macho_headeriPPKclS2_Pm
}

{
   <insert_a_suppression_name_here>
   Memcheck:Value8
   fun:_ZL33objc_initializeClassPair_internalP10objc_classPKcS0_S0_
   fun:_libxpc_initializer
   fun:libSystem_initializer
   fun:_ZN16ImageLoaderMachO18doModInitFunctionsERKN11ImageLoader11LinkContextE
   fun:_ZN16ImageLoaderMachO16doInitializationERKN11ImageLoader11LinkContextE
   fun:_ZN11ImageLoader23recursiveInitializationERKNS_11LinkContextEjPKcRNS_21InitializerTimingListERNS_15UninitedUpwardsE
   fun:_ZN11ImageLoader23recursiveInitializationERKNS_11LinkContextEjPKcRNS_21InitializerTimingListERNS_15UninitedUpwardsE
   fun:_ZN11ImageLoader19processInitializersERKNS_11LinkContextEjRNS_21InitializerTimingListERNS_15UninitedUpwardsE
   fun:_ZN11ImageLoader15runInitializersERKNS_11LinkContextERNS_21InitializerTimingListE
   fun:_ZN4dyld24initializeMainExecutableEv
   fun:_ZN4dyld5_mainEPK12macho_headermiPPKcS5_S5_Pm
   fun:_ZN13dyldbootstrap5startEPK12macho_headeriPPKclS2_Pm
}

{
   <insert_a_suppression_name_here>
   Memcheck:Value8
   fun:_ZL33objc_initializeClassPair_internalP10objc_classPKcS0_S0_
   fun:_libxpc_initializer
   fun:libSystem_initializer
   fun:_ZN16ImageLoaderMachO18doModInitFunctionsERKN11ImageLoader11LinkContextE
   fun:_ZN16ImageLoaderMachO16doInitializationERKN11ImageLoader11LinkContextE
   fun:_ZN11ImageLoader23recursiveInitializationERKNS_11LinkContextEjPKcRNS_21InitializerTimingListERNS_15UninitedUpwardsE
   fun:_ZN11ImageLoader23recursiveInitializationERKNS_11LinkContextEjPKcRNS_21InitializerTimingListERNS_15UninitedUpwardsE
   fun:_ZN11ImageLoader19processInitializersERKNS_11LinkContextEjRNS_21InitializerTimingListERNS_15UninitedUpwardsE
   fun:_ZN11ImageLoader15runInitializersERKNS_11LinkContextERNS_21InitializerTimingListE
   fun:_ZN4dyld24initializeMainExecutableEv
   fun:_ZN4dyld5_mainEPK12macho_headermiPPKcS5_S5_Pm
   fun:_ZN13dyldbootstrap5startEPK12macho_headeriPPKclS2_Pm
}

{
   <insert_a_suppression_name_here>
   Memcheck:Value8
   fun:_ZL33objc_initializeClassPair_internalP10objc_classPKcS0_S0_
   fun:_libxpc_initializer
   fun:libSystem_initializer
   fun:_ZN16ImageLoaderMachO18doModInitFunctionsERKN11ImageLoader11LinkContextE
   fun:_ZN16ImageLoaderMachO16doInitializationERKN11ImageLoader11LinkContextE
   fun:_ZN11ImageLoader23recursiveInitializationERKNS_11LinkContextEjPKcRNS_21InitializerTimingListERNS_15UninitedUpwardsE
   fun:_ZN11ImageLoader23recursiveInitializationERKNS_11LinkContextEjPKcRNS_21InitializerTimingListERNS_15UninitedUpwardsE
   fun:_ZN11ImageLoader19processInitializersERKNS_11LinkContextEjRNS_21InitializerTimingListERNS_15UninitedUpwardsE
   fun:_ZN11ImageLoader15runInitializersERKNS_11LinkContextERNS_21InitializerTimingListE
   fun:_ZN4dyld24initializeMainExecutableEv
   fun:_ZN4dyld5_mainEPK12macho_headermiPPKcS5_S5_Pm
   fun:_ZN13dyldbootstrap5startEPK12macho_headeriPPKclS2_Pm
}

{
   <insert_a_suppression_name_here>
   Memcheck:Cond
   fun:_ZL33objc_initializeClassPair_internalP10objc_classPKcS0_S0_
   fun:_libxpc_initializer
   fun:libSystem_initializer
   fun:_ZN16ImageLoaderMachO18doModInitFunctionsERKN11ImageLoader11LinkContextE
   fun:_ZN16ImageLoaderMachO16doInitializationERKN11ImageLoader11LinkContextE
   fun:_ZN11ImageLoader23recursiveInitializationERKNS_11LinkContextEjPKcRNS_21InitializerTimingListERNS_15UninitedUpwardsE
   fun:_ZN11ImageLoader23recursiveInitializationERKNS_11LinkContextEjPKcRNS_21InitializerTimingListERNS_15UninitedUpwardsE
   fun:_ZN11ImageLoader19processInitializersERKNS_11LinkContextEjRNS_21InitializerTimingListERNS_15UninitedUpwardsE
   fun:_ZN11ImageLoader15runInitializersERKNS_11LinkContextERNS_21InitializerTimingListE
   fun:_ZN4dyld24initializeMainExecutableEv
   fun:_ZN4dyld5_mainEPK12macho_headermiPPKcS5_S5_Pm
   fun:_ZN13dyldbootstrap5startEPK12macho_headeriPPKclS2_Pm
}

{
   <insert_a_suppression_name_here>
   Memcheck:Value8
   fun:_ZL33objc_initializeClassPair_internalP10objc_classPKcS0_S0_
   fun:_libxpc_initializer
   fun:libSystem_initializer
   fun:_ZN16ImageLoaderMachO18doModInitFunctionsERKN11ImageLoader11LinkContextE
   fun:_ZN16ImageLoaderMachO16doInitializationERKN11ImageLoader11LinkContextE
   fun:_ZN11ImageLoader23recursiveInitializationERKNS_11LinkContextEjPKcRNS_21InitializerTimingListERNS_15UninitedUpwardsE
   fun:_ZN11ImageLoader23recursiveInitializationERKNS_11LinkContextEjPKcRNS_21InitializerTimingListERNS_15UninitedUpwardsE
   fun:_ZN11ImageLoader19processInitializersERKNS_11LinkContextEjRNS_21InitializerTimingListERNS_15UninitedUpwardsE
   fun:_ZN11ImageLoader15runInitializersERKNS_11LinkContextERNS_21InitializerTimingListE
   fun:_ZN4dyld24initializeMainExecutableEv
   fun:_ZN4dyld5_mainEPK12macho_headermiPPKcS5_S5_Pm
   fun:_ZN13dyldbootstrap5startEPK12macho_headeriPPKclS2_Pm
}

{
   <insert_a_suppression_name_here>
   Memcheck:Value8
   fun:_ZL33objc_initializeClassPair_internalP10objc_classPKcS0_S0_
   fun:_libxpc_initializer
   fun:libSystem_initializer
   fun:_ZN16ImageLoaderMachO18doModInitFunctionsERKN11ImageLoader11LinkContextE
   fun:_ZN16ImageLoaderMachO16doInitializationERKN11ImageLoader11LinkContextE
   fun:_ZN11ImageLoader23recursiveInitializationERKNS_11LinkContextEjPKcRNS_21InitializerTimingListERNS_15UninitedUpwardsE
   fun:_ZN11ImageLoader23recursiveInitializationERKNS_11LinkContextEjPKcRNS_21InitializerTimingListERNS_15UninitedUpwardsE
   fun:_ZN11ImageLoader19processInitializersERKNS_11LinkContextEjRNS_21InitializerTimingListERNS_15UninitedUpwardsE
   fun:_ZN11ImageLoader15runInitializersERKNS_11LinkContextERNS_21InitializerTimingListE
   fun:_ZN4dyld24initializeMainExecutableEv
   fun:_ZN4dyld5_mainEPK12macho_headermiPPKcS5_S5_Pm
   fun:_ZN13dyldbootstrap5startEPK12macho_headeriPPKclS2_Pm
}

{
   <insert_a_suppression_name_here>
   Memcheck:Value8
   fun:_ZL33objc_initializeClassPair_internalP10objc_classPKcS0_S0_
   fun:_libxpc_initializer
   fun:libSystem_initializer
   fun:_ZN16ImageLoaderMachO18doModInitFunctionsERKN11ImageLoader11LinkContextE
   fun:_ZN16ImageLoaderMachO16doInitializationERKN11ImageLoader11LinkContextE
   fun:_ZN11ImageLoader23recursiveInitializationERKNS_11LinkContextEjPKcRNS_21InitializerTimingListERNS_15UninitedUpwardsE
   fun:_ZN11ImageLoader23recursiveInitializationERKNS_11LinkContextEjPKcRNS_21InitializerTimingListERNS_15UninitedUpwardsE
   fun:_ZN11ImageLoader19processInitializersERKNS_11LinkContextEjRNS_21InitializerTimingListERNS_15UninitedUpwardsE
   fun:_ZN11ImageLoader15runInitializersERKNS_11LinkContextERNS_21InitializerTimingListE
   fun:_ZN4dyld24initializeMainExecutableEv
   fun:_ZN4dyld5_mainEPK12macho_headermiPPKcS5_S5_Pm
   fun:_ZN13dyldbootstrap5startEPK12macho_headeriPPKclS2_Pm
}

{
   <insert_a_suppression_name_here>
   Memcheck:Cond
   fun:xpc_uint64_create
   fun:_xpc_collect_images
   fun:_libxpc_initializer
   fun:libSystem_initializer
   fun:_ZN16ImageLoaderMachO18doModInitFunctionsERKN11ImageLoader11LinkContextE
   fun:_ZN16ImageLoaderMachO16doInitializationERKN11ImageLoader11LinkContextE
   fun:_ZN11ImageLoader23recursiveInitializationERKNS_11LinkContextEjPKcRNS_21InitializerTimingListERNS_15UninitedUpwardsE
   fun:_ZN11ImageLoader23recursiveInitializationERKNS_11LinkContextEjPKcRNS_21InitializerTimingListERNS_15UninitedUpwardsE
   fun:_ZN11ImageLoader19processInitializersERKNS_11LinkContextEjRNS_21InitializerTimingListERNS_15UninitedUpwardsE
   fun:_ZN11ImageLoader15runInitializersERKNS_11LinkContextERNS_21InitializerTimingListE
   fun:_ZN4dyld24initializeMainExecutableEv
   fun:_ZN4dyld5_mainEPK12macho_headermiPPKcS5_S5_Pm
}

{
   <insert_a_suppression_name_here>
   Memcheck:Cond
   fun:_xpc_dictionary_insert
   fun:_xpc_dyld_image_callback
   fun:_ZN4dyld20registerLoadCallbackEPFvPK11mach_headerPKcbE
   fun:_xpc_collect_images
   fun:_libxpc_initializer
   fun:libSystem_initializer
   fun:_ZN16ImageLoaderMachO18doModInitFunctionsERKN11ImageLoader11LinkContextE
   fun:_ZN16ImageLoaderMachO16doInitializationERKN11ImageLoader11LinkContextE
   fun:_ZN11ImageLoader23recursiveInitializationERKNS_11LinkContextEjPKcRNS_21InitializerTimingListERNS_15UninitedUpwardsE
   fun:_ZN11ImageLoader23recursiveInitializationERKNS_11LinkContextEjPKcRNS_21InitializerTimingListERNS_15UninitedUpwardsE
   fun:_ZN11ImageLoader19processInitializersERKNS_11LinkContextEjRNS_21InitializerTimingListERNS_15UninitedUpwardsE
   fun:_ZN11ImageLoader15runInitializersERKNS_11LinkContextERNS_21InitializerTimingListE
}

{
   <insert_a_suppression_name_here>
   Memcheck:Cond
   fun:_xpc_dictionary_insert
   fun:_xpc_dyld_image_callback
   fun:_ZN4dyld20registerLoadCallbackEPFvPK11mach_headerPKcbE
   fun:_xpc_collect_images
   fun:_libxpc_initializer
   fun:libSystem_initializer
   fun:_ZN16ImageLoaderMachO18doModInitFunctionsERKN11ImageLoader11LinkContextE
   fun:_ZN16ImageLoaderMachO16doInitializationERKN11ImageLoader11LinkContextE
   fun:_ZN11ImageLoader23recursiveInitializationERKNS_11LinkContextEjPKcRNS_21InitializerTimingListERNS_15UninitedUpwardsE
   fun:_ZN11ImageLoader23recursiveInitializationERKNS_11LinkContextEjPKcRNS_21InitializerTimingListERNS_15UninitedUpwardsE
   fun:_ZN11ImageLoader19processInitializersERKNS_11LinkContextEjRNS_21InitializerTimingListERNS_15UninitedUpwardsE
   fun:_ZN11ImageLoader15runInitializersERKNS_11LinkContextERNS_21InitializerTimingListE
}

{
   <insert_a_suppression_name_here>
   Memcheck:Param
   msg->desc.port.name
   fun:mach_msg_trap
   fun:mach_msg
   fun:task_set_special_port
   fun:_os_trace_create_debug_control_port
   fun:_libtrace_init
   fun:libSystem_initializer
   fun:_ZN16ImageLoaderMachO18doModInitFunctionsERKN11ImageLoader11LinkContextE
   fun:_ZN16ImageLoaderMachO16doInitializationERKN11ImageLoader11LinkContextE
   fun:_ZN11ImageLoader23recursiveInitializationERKNS_11LinkContextEjPKcRNS_21InitializerTimingListERNS_15UninitedUpwardsE
   fun:_ZN11ImageLoader23recursiveInitializationERKNS_11LinkContextEjPKcRNS_21InitializerTimingListERNS_15UninitedUpwardsE
   fun:_ZN11ImageLoader19processInitializersERKNS_11LinkContextEjRNS_21InitializerTimingListERNS_15UninitedUpwardsE
   fun:_ZN11ImageLoader15runInitializersERKNS_11LinkContextERNS_21InitializerTimingListE
}

{
   <insert_a_suppression_name_here>
   Memcheck:Leak
   match-leak-kinds: possible
   fun:malloc_zone_calloc
   fun:_Z9readClassP10objc_classbb
   fun:_Z9readClassP10objc_classbb
   fun:_Z9readClassP10objc_classbb
   fun:_NXHashRehashToCapacity
   fun:NXHashInsert
   fun:_ZL16isEqualPrototypePKvS0_S0_
   fun:NXHashGet
   fun:_ZNSt3__112__hash_tableINS_17__hash_value_typeImPN23objc_references_support20ObjectAssociationMapEEENS_22__unordered_map_hasherImS5_NS2_20DisguisedPointerHashELb1EEENS_21__unordered_map_equalImS5_NS2_21DisguisedPointerEqualELb1EEENS2_13ObjcAllocatorIS5_EEE6removeENS_21__hash_const_iteratorIPNS_11__hash_nodeIS5_PvEEEE
   fun:_ZNK8objc_opt17objc_stringhash_t4hashEPKcm
   fun:_hasObjcContents
   fun:_class_remap
}

{
   <insert_a_suppression_name_here>
   Memcheck:Leak
   match-leak-kinds: possible
   fun:malloc_zone_calloc
   fun:_Z9readClassP10objc_classbb
   fun:_Z9readClassP10objc_classbb
   fun:_Z9readClassP10objc_classbb
   fun:NXHashInsert
   fun:NXHashGet
   fun:_ZL16attachCategoriesP10objc_classP26locstamped_category_list_tb
   fun:_ZN10objc_class14setHasCustomRREb
   fun:_ZL12realizeClassP10objc_class
   fun:_ZL12realizeClassP10objc_class
   fun:_ZL12realizeClassP10objc_class
   fun:_ZL12realizeClassP10objc_class
}

{
   <insert_a_suppression_name_here>
   Memcheck:Leak
   match-leak-kinds: possible
   fun:calloc
   fun:preopt_init
   fun:_class_remap
   fun:_ZN4dyldL18notifyBatchPartialE17dyld_image_statesbPFPKcS0_jPK15dyld_image_infoEbb
   fun:_ZN4dyld21registerObjCNotifiersEPFvjPKPKcPKPK11mach_headerEPFvS1_S6_ESC_
   fun:_dyld_objc_notify_register
   fun:map_images_nolock
   fun:_os_object_init
   fun:libdispatch_init
   fun:libSystem_initializer
   fun:_ZN16ImageLoaderMachO18doModInitFunctionsERKN11ImageLoader11LinkContextE
   fun:_ZN16ImageLoaderMachO16doInitializationERKN11ImageLoader11LinkContextE
}
